target datalayout = "e-m:e-p270:32:32-p271:32:32-p272:64:64-i64:64-i128:128-f80:128-n8:16:32:64-S128"
target triple = "x86_64-pc-linux-gnu"

; Function Attrs: mustprogress uwtable
define dso_local ptr @__cxa_allocate_dependent_exception() #10 {
  %1 = alloca i64, align 8
  %2 = alloca ptr, align 8
  call void @llvm.lifetime.start.p0(i64 8, ptr %1) #14
  store i64 128, ptr %1, align 8, !tbaa !9
  call void @llvm.lifetime.start.p0(i64 8, ptr %2) #14
  %3 = load i64, ptr %1, align 8, !tbaa !9
  %4 = call noundef ptr @_ZN10__cxxabiv130__aligned_malloc_with_fallbackEm(i64 noundef %3)
  store ptr %4, ptr %2, align 8, !tbaa !15
  %5 = load ptr, ptr %2, align 8, !tbaa !15
  %6 = icmp eq ptr null, %5
  br i1 %6, label %7, label %8

7:                                                ; preds = %0
  call void @_ZSt9terminatev() #15
  unreachable

8:                                                ; preds = %0
  %9 = load ptr, ptr %2, align 8, !tbaa !15
  %10 = load i64, ptr %1, align 8, !tbaa !9
  call void @llvm.memset.p0.i64(ptr align 1 %9, i8 0, i64 %10, i1 false)
  %11 = load ptr, ptr %2, align 8, !tbaa !15
  call void @llvm.lifetime.end.p0(i64 8, ptr %2) #14
  call void @llvm.lifetime.end.p0(i64 8, ptr %1) #14
  ret ptr %11
}