; Function Attrs: mustprogress uwtable
define dso_local nonnull ptr @__cxa_allocate_dependent_exception() local_unnamed_addr #9 {
  %1 = tail call noundef ptr @_ZN10__cxxabiv130__aligned_malloc_with_fallbackEm(i64 noundef 128)
  %2 = icmp eq ptr %1, null
  br i1 %2, label %3, label %4

3:                                                ; preds = %0
  tail call void @_ZSt9terminatev() #16
  unreachable

4:                                                ; preds = %0
  tail call void @llvm.memset.p0.i64(ptr noundef nonnull align 1 dereferenceable(128) %1, i8 0, i64 128, i1 false)
  ret ptr %1
}